; Function Attrs: mustprogress uwtable
define internal fastcc noundef range(i32 0, 2) i32 @_ZL20stbi__psd_decode_rleP13stbi__contextPhi(ptr noundef nonnull %0, ptr noundef nonnull writeonly captures(none) %1, i32 noundef %2) unnamed_addr #5 {
  %4 = icmp sgt i32 %2, 0
  br i1 %4, label %.lr.ph, label %.thread62

.lr.ph:                                           ; preds = %3
  %5 = getelementptr inbounds nuw i8, ptr %0, i64 192
  %6 = getelementptr inbounds nuw i8, ptr %0, i64 200
  %7 = getelementptr inbounds nuw i8, ptr %0, i64 48
  %8 = getelementptr inbounds nuw i8, ptr %0, i64 16
  %9 = getelementptr inbounds nuw i8, ptr %0, i64 40
  %10 = getelementptr inbounds nuw i8, ptr %0, i64 56
  %11 = getelementptr inbounds nuw i8, ptr %0, i64 52
  %12 = getelementptr inbounds nuw i8, ptr %0, i64 208
  %13 = getelementptr inbounds nuw i8, ptr %0, i64 184
  %14 = getelementptr inbounds nuw i8, ptr %0, i64 57
  br label %15

15:                                               ; preds = %.lr.ph, %.loopexit
  %16 = phi i32 [ %2, %.lr.ph ], [ %116, %.loopexit ]
  %.03171 = phi ptr [ %1, %.lr.ph ], [ %.132, %.loopexit ]
  %.03570 = phi i32 [ 0, %.lr.ph ], [ %.136, %.loopexit ]
  %17 = load ptr, ptr %5, align 8, !tbaa !20
  %18 = load ptr, ptr %6, align 8, !tbaa !23
  %19 = icmp ult ptr %17, %18
  br i1 %19, label %20, label %23

20:                                               ; preds = %15
  %21 = getelementptr inbounds nuw i8, ptr %17, i64 1
  store ptr %21, ptr %5, align 8, !tbaa !20
  %22 = load i8, ptr %17, align 1, !tbaa !22
  br label %_ZL10stbi__get8P13stbi__context.exit

23:                                               ; preds = %15
  %24 = load i32, ptr %7, align 8, !tbaa !17
  %.not.i = icmp eq i32 %24, 0
  br i1 %.not.i, label %.thread60, label %25

25:                                               ; preds = %23
  %26 = load ptr, ptr %8, align 8, !tbaa !21
  %27 = load ptr, ptr %9, align 8, !tbaa !13
  %28 = load i32, ptr %11, align 4, !tbaa !16
  %29 = tail call noundef i32 %26(ptr noundef %27, ptr noundef nonnull %10, i32 noundef %28)
  %30 = load ptr, ptr %5, align 8, !tbaa !20
  %31 = load ptr, ptr %12, align 8, !tbaa !19
  %32 = ptrtoint ptr %30 to i64
  %33 = ptrtoint ptr %31 to i64
  %34 = sub i64 %32, %33
  %35 = trunc i64 %34 to i32
  %36 = load i32, ptr %13, align 8, !tbaa !18
  %37 = add nsw i32 %36, %35
  store i32 %37, ptr %13, align 8, !tbaa !18
  %38 = icmp eq i32 %29, 0
  br i1 %38, label %39, label %40

39:                                               ; preds = %25
  store i32 0, ptr %7, align 8, !tbaa !17
  store i8 0, ptr %10, align 1, !tbaa !22
  br label %_ZL19stbi__refill_bufferP13stbi__context.exit.i

40:                                               ; preds = %25
  %41 = sext i32 %29 to i64
  %42 = getelementptr inbounds i8, ptr %10, i64 %41
  %.pre.i = load i8, ptr %10, align 1, !tbaa !22
  br label %_ZL19stbi__refill_bufferP13stbi__context.exit.i

_ZL19stbi__refill_bufferP13stbi__context.exit.i:  ; preds = %40, %39
  %43 = phi i8 [ 0, %39 ], [ %.pre.i, %40 ]
  %.sink.i.i = phi ptr [ %14, %39 ], [ %42, %40 ]
  store ptr %.sink.i.i, ptr %6, align 8, !tbaa !23
  store ptr %14, ptr %5, align 8, !tbaa !20
  br label %_ZL10stbi__get8P13stbi__context.exit

_ZL10stbi__get8P13stbi__context.exit:             ; preds = %20, %_ZL19stbi__refill_bufferP13stbi__context.exit.i
  %44 = phi ptr [ %18, %20 ], [ %.sink.i.i, %_ZL19stbi__refill_bufferP13stbi__context.exit.i ]
  %45 = phi ptr [ %21, %20 ], [ %14, %_ZL19stbi__refill_bufferP13stbi__context.exit.i ]
  %.0.i = phi i8 [ %22, %20 ], [ %43, %_ZL19stbi__refill_bufferP13stbi__context.exit.i ]
  %46 = zext i8 %.0.i to i32
  %47 = icmp eq i8 %.0.i, -128
  br i1 %47, label %.loopexit, label %48

48:                                               ; preds = %_ZL10stbi__get8P13stbi__context.exit
  %49 = icmp sgt i8 %.0.i, -1
  br i1 %49, label %50, label %83

50:                                               ; preds = %48
  %.not43 = icmp samesign ugt i32 %16, %46
  br i1 %.not43, label %.thread60, label %.thread62

.thread60:                                        ; preds = %23, %50
  %51 = phi i32 [ %46, %50 ], [ 0, %23 ]
  %52 = add nuw nsw i32 %51, 1
  br label %53

53:                                               ; preds = %.thread60, %_ZL10stbi__get8P13stbi__context.exit50
  %.02969 = phi i32 [ %52, %.thread60 ], [ %82, %_ZL10stbi__get8P13stbi__context.exit50 ]
  %.23368 = phi ptr [ %.03171, %.thread60 ], [ %81, %_ZL10stbi__get8P13stbi__context.exit50 ]
  %54 = load ptr, ptr %5, align 8, !tbaa !20
  %55 = load ptr, ptr %6, align 8, !tbaa !23
  %56 = icmp ult ptr %54, %55
  br i1 %56, label %57, label %60

57:                                               ; preds = %53
  %58 = getelementptr inbounds nuw i8, ptr %54, i64 1
  store ptr %58, ptr %5, align 8, !tbaa !20
  %59 = load i8, ptr %54, align 1, !tbaa !22
  br label %_ZL10stbi__get8P13stbi__context.exit50

60:                                               ; preds = %53
  %61 = load i32, ptr %7, align 8, !tbaa !17
  %.not.i45 = icmp eq i32 %61, 0
  br i1 %.not.i45, label %_ZL10stbi__get8P13stbi__context.exit50, label %62

62:                                               ; preds = %60
  %63 = load ptr, ptr %8, align 8, !tbaa !21
  %64 = load ptr, ptr %9, align 8, !tbaa !13
  %65 = load i32, ptr %11, align 4, !tbaa !16
  %66 = tail call noundef i32 %63(ptr noundef %64, ptr noundef nonnull %10, i32 noundef %65)
  %67 = load ptr, ptr %5, align 8, !tbaa !20
  %68 = load ptr, ptr %12, align 8, !tbaa !19
  %69 = ptrtoint ptr %67 to i64
  %70 = ptrtoint ptr %68 to i64
  %71 = sub i64 %69, %70
  %72 = trunc i64 %71 to i32
  %73 = load i32, ptr %13, align 8, !tbaa !18
  %74 = add nsw i32 %73, %72
  store i32 %74, ptr %13, align 8, !tbaa !18
  %75 = icmp eq i32 %66, 0
  br i1 %75, label %76, label %77

76:                                               ; preds = %62
  store i32 0, ptr %7, align 8, !tbaa !17
  store i8 0, ptr %10, align 1, !tbaa !22
  br label %_ZL19stbi__refill_bufferP13stbi__context.exit.i47

77:                                               ; preds = %62
  %78 = sext i32 %66 to i64
  %79 = getelementptr inbounds i8, ptr %10, i64 %78
  %.pre.i46 = load i8, ptr %10, align 1, !tbaa !22
  br label %_ZL19stbi__refill_bufferP13stbi__context.exit.i47

_ZL19stbi__refill_bufferP13stbi__context.exit.i47: ; preds = %77, %76
  %80 = phi i8 [ 0, %76 ], [ %.pre.i46, %77 ]
  %.sink.i.i48 = phi ptr [ %14, %76 ], [ %79, %77 ]
  store ptr %.sink.i.i48, ptr %6, align 8, !tbaa !23
  store ptr %14, ptr %5, align 8, !tbaa !20
  br label %_ZL10stbi__get8P13stbi__context.exit50

_ZL10stbi__get8P13stbi__context.exit50:           ; preds = %57, %60, %_ZL19stbi__refill_bufferP13stbi__context.exit.i47
  %.0.i49 = phi i8 [ %59, %57 ], [ %80, %_ZL19stbi__refill_bufferP13stbi__context.exit.i47 ], [ 0, %60 ]
  store i8 %.0.i49, ptr %.23368, align 1, !tbaa !22
  %81 = getelementptr inbounds nuw i8, ptr %.23368, i64 4
  %82 = add nsw i32 %.02969, -1
  %.not44 = icmp eq i32 %82, 0
  br i1 %.not44, label %.loopexit.loopexit, label %53, !llvm.loop !311

83:                                               ; preds = %48
  %84 = sub nuw nsw i32 257, %46
  %.not42 = icmp samesign ugt i32 %84, %16
  br i1 %.not42, label %.thread62, label %85

85:                                               ; preds = %83
  %86 = icmp ult ptr %45, %44
  br i1 %86, label %87, label %90

87:                                               ; preds = %85
  %88 = getelementptr inbounds nuw i8, ptr %45, i64 1
  store ptr %88, ptr %5, align 8, !tbaa !20
  %89 = load i8, ptr %45, align 1, !tbaa !22
  br label %_ZL10stbi__get8P13stbi__context.exit56

90:                                               ; preds = %85
  %91 = load i32, ptr %7, align 8, !tbaa !17
  %.not.i51 = icmp eq i32 %91, 0
  br i1 %.not.i51, label %_ZL10stbi__get8P13stbi__context.exit56, label %92

92:                                               ; preds = %90
  %93 = load ptr, ptr %8, align 8, !tbaa !21
  %94 = load ptr, ptr %9, align 8, !tbaa !13
  %95 = load i32, ptr %11, align 4, !tbaa !16
  %96 = tail call noundef i32 %93(ptr noundef %94, ptr noundef nonnull %10, i32 noundef %95)
  %97 = load ptr, ptr %5, align 8, !tbaa !20
  %98 = load ptr, ptr %12, align 8, !tbaa !19
  %99 = ptrtoint ptr %97 to i64
  %100 = ptrtoint ptr %98 to i64
  %101 = sub i64 %99, %100
  %102 = trunc i64 %101 to i32
  %103 = load i32, ptr %13, align 8, !tbaa !18
  %104 = add nsw i32 %103, %102
  store i32 %104, ptr %13, align 8, !tbaa !18
  %105 = icmp eq i32 %96, 0
  br i1 %105, label %106, label %107

106:                                              ; preds = %92
  store i32 0, ptr %7, align 8, !tbaa !17
  store i8 0, ptr %10, align 1, !tbaa !22
  br label %_ZL19stbi__refill_bufferP13stbi__context.exit.i53

107:                                              ; preds = %92
  %108 = sext i32 %96 to i64
  %109 = getelementptr inbounds i8, ptr %10, i64 %108
  %.pre.i52 = load i8, ptr %10, align 1, !tbaa !22
  br label %_ZL19stbi__refill_bufferP13stbi__context.exit.i53

_ZL19stbi__refill_bufferP13stbi__context.exit.i53: ; preds = %107, %106
  %110 = phi i8 [ 0, %106 ], [ %.pre.i52, %107 ]
  %.sink.i.i54 = phi ptr [ %14, %106 ], [ %109, %107 ]
  store ptr %.sink.i.i54, ptr %6, align 8, !tbaa !23
  store ptr %14, ptr %5, align 8, !tbaa !20
  br label %_ZL10stbi__get8P13stbi__context.exit56

_ZL10stbi__get8P13stbi__context.exit56:           ; preds = %87, %90, %_ZL19stbi__refill_bufferP13stbi__context.exit.i53
  %.0.i55 = phi i8 [ %89, %87 ], [ %110, %_ZL19stbi__refill_bufferP13stbi__context.exit.i53 ], [ 0, %90 ]
  br label %111

111:                                              ; preds = %_ZL10stbi__get8P13stbi__context.exit56, %111
  %.13067 = phi i32 [ %84, %_ZL10stbi__get8P13stbi__context.exit56 ], [ %113, %111 ]
  %.466 = phi ptr [ %.03171, %_ZL10stbi__get8P13stbi__context.exit56 ], [ %112, %111 ]
  store i8 %.0.i55, ptr %.466, align 1, !tbaa !22
  %112 = getelementptr inbounds nuw i8, ptr %.466, i64 4
  %113 = add nsw i32 %.13067, -1
  %.not = icmp eq i32 %113, 0
  br i1 %.not, label %.loopexit.loopexit76, label %111, !llvm.loop !312

.loopexit.loopexit:                               ; preds = %_ZL10stbi__get8P13stbi__context.exit50
  %114 = add nsw i32 %52, %.03570
  br label %.loopexit

.loopexit.loopexit76:                             ; preds = %111
  %115 = add nsw i32 %84, %.03570
  br label %.loopexit

.loopexit:                                        ; preds = %.loopexit.loopexit76, %.loopexit.loopexit, %_ZL10stbi__get8P13stbi__context.exit
  %.136 = phi i32 [ %.03570, %_ZL10stbi__get8P13stbi__context.exit ], [ %114, %.loopexit.loopexit ], [ %115, %.loopexit.loopexit76 ]
  %.132 = phi ptr [ %.03171, %_ZL10stbi__get8P13stbi__context.exit ], [ %81, %.loopexit.loopexit ], [ %112, %.loopexit.loopexit76 ]
  %116 = sub nsw i32 %2, %.136
  %117 = icmp sgt i32 %116, 0
  br i1 %117, label %15, label %.thread62, !llvm.loop !313

.thread62:                                        ; preds = %50, %.loopexit, %83, %3
  %.2 = phi i32 [ 1, %3 ], [ 0, %83 ], [ 1, %.loopexit ], [ 0, %50 ]
  ret i32 %.2
}